target datalayout = "e-m:e-p270:32:32-p271:32:32-p272:64:64-i64:64-i128:128-f80:128-n8:16:32:64-S128"
target triple = "x86_64-pc-linux-gnu"

%union.pthread_mutex_t = type { %struct.__pthread_mutex_s }
%struct.__pthread_mutex_s = type { i32, i32, i32, i32, i32, i16, i16, %struct.__pthread_internal_list }
%struct.__pthread_internal_list = type { ptr, ptr }

@_ZN7logging12_GLOBAL__N_111LoggingLock13lock_log_fileE = internal global i32 0, align 4
@_ZN7logging12_GLOBAL__N_111LoggingLock8log_lockE = internal global ptr null, align 8
@_ZN7logging12_GLOBAL__N_111LoggingLock9log_mutexE = internal global %union.pthread_mutex_t zeroinitializer, align 8

; Function Attrs: mustprogress uwtable
define internal void @_ZN7logging12_GLOBAL__N_111LoggingLock13UnlockLoggingEv() #0 align 2 {
  %1 = load i32, ptr @_ZN7logging12_GLOBAL__N_111LoggingLock13lock_log_fileE, align 4, !tbaa !48
  %2 = icmp eq i32 %1, 0
  br i1 %2, label %3, label %5

3:                                                ; preds = %0
  %4 = call i32 @pthread_mutex_unlock(ptr noundef @_ZN7logging12_GLOBAL__N_111LoggingLock9log_mutexE) #16
  br label %7

5:                                                ; preds = %0
  %6 = load ptr, ptr @_ZN7logging12_GLOBAL__N_111LoggingLock8log_lockE, align 8, !tbaa !53
  call void @_ZN4base8internal8LockImpl6UnlockEv(ptr noundef nonnull align 8 dereferenceable(40) %6)
  br label %7

7:                                                ; preds = %5, %3
  ret void
}

; Function Attrs: mustprogress nounwind uwtable
define internal void @_ZN7logging12_GLOBAL__N_111LoggingLockD2Ev(ptr noundef nonnull align 1 dereferenceable(1) %0) unnamed_addr #5 align 2 personality ptr @__gxx_personality_v0 {
  %2 = alloca ptr, align 8
  store ptr %0, ptr %2, align 8, !tbaa !55
  invoke void @_ZN7logging12_GLOBAL__N_111LoggingLock13UnlockLoggingEv()
          to label %3 unwind label %4

3:                                                ; preds = %1
  ret void

4:                                                ; preds = %1
  %5 = landingpad { ptr, i32 }
          catch ptr null
  %6 = extractvalue { ptr, i32 } %5, 0
  call void @__clang_call_terminate(ptr %6) #19
  unreachable
}