; Function Attrs: mustprogress nounwind uwtable
define internal fastcc void @_ZN7logging12_GLOBAL__N_111LoggingLockD2Ev() unnamed_addr #4 align 2 personality ptr @__gxx_personality_v0 {
  %1 = load i32, ptr @_ZN7logging12_GLOBAL__N_111LoggingLock13lock_log_fileE, align 4, !tbaa !80
  %2 = icmp eq i32 %1, 0
  br i1 %2, label %3, label %5

3:                                                ; preds = %0
  %4 = tail call i32 @pthread_mutex_unlock(ptr noundef nonnull @_ZN7logging12_GLOBAL__N_111LoggingLock9log_mutexE) #24
  br label %_ZN7logging12_GLOBAL__N_111LoggingLock13UnlockLoggingEv.exit

5:                                                ; preds = %0
  %6 = load ptr, ptr @_ZN7logging12_GLOBAL__N_111LoggingLock8log_lockE, align 8, !tbaa !81
  invoke void @_ZN4base8internal8LockImpl6UnlockEv(ptr noundef nonnull align 8 dereferenceable(40) %6)
          to label %_ZN7logging12_GLOBAL__N_111LoggingLock13UnlockLoggingEv.exit unwind label %7

_ZN7logging12_GLOBAL__N_111LoggingLock13UnlockLoggingEv.exit: ; preds = %3, %5
  ret void

7:                                                ; preds = %5
  %8 = landingpad { ptr, i32 }
          catch ptr null
  %9 = extractvalue { ptr, i32 } %8, 0
  tail call void @__clang_call_terminate(ptr %9) #27
  unreachable
}